; Function Attrs: mustprogress nounwind uwtable
define internal fastcc noundef zeroext i1 @_ZN12_GLOBAL__N_119SCEVDbgValueBuilder8pushCastEPKN4llvm12SCEVCastExprEb(ptr noundef nonnull align 8 dereferenceable(96) %0, ptr nocapture noundef readonly %1, i1 noundef zeroext %2) unnamed_addr #0 align 2 {
  %4 = alloca [3 x i64], align 16
  %5 = getelementptr inbounds nuw i8, ptr %1, i64 32
  %6 = load ptr, ptr %5, align 8
  %7 = getelementptr inbounds nuw i8, ptr %1, i64 40
  %8 = load ptr, ptr %7, align 8
  %9 = getelementptr inbounds nuw i8, ptr %8, i64 8
  %10 = load i32, ptr %9, align 8
  %11 = lshr i32 %10, 8
  %12 = zext nneg i32 %11 to i64
  %13 = tail call fastcc noundef zeroext i1 @_ZN12_GLOBAL__N_119SCEVDbgValueBuilder8pushSCEVEPKN4llvm4SCEVE(ptr noundef nonnull align 8 dereferenceable(96) %0, ptr noundef %6)
  store i64 4097, ptr %4, align 16
  %14 = getelementptr inbounds i8, ptr %4, i64 8
  store i64 %12, ptr %14, align 8
  %15 = getelementptr inbounds i8, ptr %4, i64 16
  %16 = select i1 %2, i64 5, i64 7
  store i64 %16, ptr %15, align 16
  %17 = getelementptr inbounds i8, ptr %0, i64 16
  br label %18

18:                                               ; preds = %3, %_ZN12_GLOBAL__N_119SCEVDbgValueBuilder12pushOperatorEm.exit
  %.0.idx14 = phi i64 [ 0, %3 ], [ %.0.add, %_ZN12_GLOBAL__N_119SCEVDbgValueBuilder12pushOperatorEm.exit ]
  %.0.ptr = getelementptr inbounds i8, ptr %4, i64 %.0.idx14
  %19 = load i64, ptr %.0.ptr, align 8
  %20 = tail call noundef i64 @_ZNK4llvm15SmallVectorBaseIjE4sizeEv(ptr noundef nonnull align 8 dereferenceable(16) %0) #21
  %21 = add i64 %20, 1
  %22 = tail call noundef i64 @_ZNK4llvm15SmallVectorBaseIjE8capacityEv(ptr noundef nonnull align 8 dereferenceable(16) %0) #21
  %.not.i.i.i.i = icmp ugt i64 %21, %22
  br i1 %.not.i.i.i.i, label %23, label %_ZN12_GLOBAL__N_119SCEVDbgValueBuilder12pushOperatorEm.exit

23:                                               ; preds = %18
  tail call void @_ZN4llvm15SmallVectorBaseIjE8grow_podEPvmm(ptr noundef nonnull align 8 dereferenceable(16) %0, ptr noundef nonnull %17, i64 noundef %21, i64 noundef 8) #21
  br label %_ZN12_GLOBAL__N_119SCEVDbgValueBuilder12pushOperatorEm.exit

_ZN12_GLOBAL__N_119SCEVDbgValueBuilder12pushOperatorEm.exit: ; preds = %18, %23
  %24 = load ptr, ptr %0, align 8
  %25 = tail call noundef i64 @_ZNK4llvm15SmallVectorBaseIjE4sizeEv(ptr noundef nonnull align 8 dereferenceable(16) %0) #21
  %26 = getelementptr inbounds i64, ptr %24, i64 %25
  store i64 %19, ptr %26, align 1
  %27 = tail call noundef i64 @_ZNK4llvm15SmallVectorBaseIjE4sizeEv(ptr noundef nonnull align 8 dereferenceable(16) %0) #21
  %28 = add i64 %27, 1
  tail call void @_ZN4llvm15SmallVectorBaseIjE8set_sizeEm(ptr noundef nonnull align 8 dereferenceable(16) %0, i64 noundef %28) #21
  %.0.add = add nuw nsw i64 %.0.idx14, 8
  %.not = icmp eq i64 %.0.add, 24
  br i1 %.not, label %29, label %18

29:                                               ; preds = %_ZN12_GLOBAL__N_119SCEVDbgValueBuilder12pushOperatorEm.exit
  ret i1 %13
}